; Function Attrs: nounwind uwtable
define internal noundef ptr @experimental_arenas_i_index(ptr noundef %0, ptr readnone captures(none) %1, i64 %2, i64 noundef %3) #0 {
  %5 = tail call i32 @pthread_mutex_trylock(ptr noundef nonnull getelementptr inbounds nuw (i8, ptr @ctl_mtx, i64 72)) #15
  %.not.i = icmp eq i32 %5, 0
  br i1 %.not.i, label %malloc_mutex_trylock_final.exit.i, label %6

malloc_mutex_trylock_final.exit.i:                ; preds = %4
  store atomic i8 1, ptr getelementptr inbounds nuw (i8, ptr @ctl_mtx, i64 64) monotonic, align 8
  br label %7

6:                                                ; preds = %4
  tail call void @je_malloc_mutex_lock_slow(ptr noundef nonnull @ctl_mtx) #15
  br label %7

7:                                                ; preds = %6, %malloc_mutex_trylock_final.exit.i
  %8 = load i64, ptr getelementptr inbounds nuw (i8, ptr @ctl_mtx, i64 56), align 8, !tbaa !17
  %9 = add i64 %8, 1
  store i64 %9, ptr getelementptr inbounds nuw (i8, ptr @ctl_mtx, i64 56), align 8, !tbaa !17
  %10 = load ptr, ptr getelementptr inbounds nuw (i8, ptr @ctl_mtx, i64 48), align 8, !tbaa !23
  %.not.i.i = icmp eq ptr %10, %0
  br i1 %.not.i.i, label %malloc_mutex_lock.exit, label %11

11:                                               ; preds = %7
  store ptr %0, ptr getelementptr inbounds nuw (i8, ptr @ctl_mtx, i64 48), align 8, !tbaa !23
  %12 = load i64, ptr getelementptr inbounds nuw (i8, ptr @ctl_mtx, i64 40), align 8, !tbaa !24
  %13 = add i64 %12, 1
  store i64 %13, ptr getelementptr inbounds nuw (i8, ptr @ctl_mtx, i64 40), align 8, !tbaa !24
  br label %malloc_mutex_lock.exit

malloc_mutex_lock.exit:                           ; preds = %7, %11
  switch i64 %3, label %15 [
    i64 4096, label %ctl_arenas_i_verify.exit
    i64 4097, label %14
  ]

14:                                               ; preds = %malloc_mutex_lock.exit
  br label %ctl_arenas_i_verify.exit

15:                                               ; preds = %malloc_mutex_lock.exit
  %16 = load ptr, ptr @ctl_arenas, align 8, !tbaa !25
  %17 = getelementptr inbounds nuw i8, ptr %16, i64 8
  %18 = load i32, ptr %17, align 8, !tbaa !40
  %19 = zext i32 %18 to i64
  %20 = icmp eq i64 %3, %19
  br i1 %20, label %ctl_arenas_i_verify.exit, label %21

21:                                               ; preds = %15
  %.not.i.i3 = icmp uge i64 %3, %19
  %22 = trunc i64 %3 to i32
  %23 = add i32 %22, 2
  %24 = icmp eq i32 %23, -1
  %or.cond.i = or i1 %24, %.not.i.i3
  br i1 %or.cond.i, label %ctl_arenas_i_verify.exit.thread, label %ctl_arenas_i_verify.exit

ctl_arenas_i_verify.exit:                         ; preds = %malloc_mutex_lock.exit, %14, %15, %21
  %.0.i5.i = phi i32 [ 0, %15 ], [ 0, %malloc_mutex_lock.exit ], [ 1, %14 ], [ %23, %21 ]
  %25 = zext i32 %.0.i5.i to i64
  %26 = load ptr, ptr @ctl_arenas, align 8, !tbaa !25
  %27 = getelementptr inbounds nuw i8, ptr %26, i64 24
  %28 = getelementptr inbounds nuw [4097 x ptr], ptr %27, i64 0, i64 %25
  %29 = load ptr, ptr %28, align 8, !tbaa !29
  %30 = getelementptr inbounds nuw i8, ptr %29, i64 4
  %31 = load i8, ptr %30, align 4, !tbaa !36, !range !48, !noundef !49
  %32 = trunc nuw i8 %31 to i1
  br i1 %32, label %33, label %ctl_arenas_i_verify.exit.thread

ctl_arenas_i_verify.exit.thread:                  ; preds = %21, %ctl_arenas_i_verify.exit
  br label %33

33:                                               ; preds = %ctl_arenas_i_verify.exit, %ctl_arenas_i_verify.exit.thread
  %34 = phi ptr [ null, %ctl_arenas_i_verify.exit.thread ], [ @super_experimental_arenas_i_node, %ctl_arenas_i_verify.exit ]
  store atomic i8 0, ptr getelementptr inbounds nuw (i8, ptr @ctl_mtx, i64 64) monotonic, align 8
  %35 = tail call i32 @pthread_mutex_unlock(ptr noundef nonnull getelementptr inbounds nuw (i8, ptr @ctl_mtx, i64 72)) #15
  ret ptr %34
}